; Function Attrs: mustprogress nounwind uwtable
define dso_local void @_ZNK4llvm19MachineTraceMetrics8Ensemble5printERNS_11raw_ostreamE(ptr noundef nonnull align 8 dereferenceable(440) %0, ptr noundef nonnull align 8 dereferenceable(48) %1) local_unnamed_addr #0 align 2 {
  %3 = load ptr, ptr %0, align 8
  %4 = getelementptr inbounds nuw i8, ptr %3, i64 32
  %5 = load ptr, ptr %4, align 8
  %6 = tail call noundef ptr %5(ptr noundef nonnull align 8 dereferenceable(440) %0) #21
  %.not.i.i = icmp eq ptr %6, null
  br i1 %.not.i.i, label %_ZN4llvm11raw_ostreamlsEPKc.exit, label %_ZN4llvm9StringRefC2EPKc.exit.i

_ZN4llvm9StringRefC2EPKc.exit.i:                  ; preds = %2
  %7 = tail call noundef i64 @strlen(ptr noundef nonnull dereferenceable(1) %6) #21
  %8 = getelementptr inbounds nuw i8, ptr %1, i64 24
  %9 = load ptr, ptr %8, align 8
  %10 = getelementptr inbounds nuw i8, ptr %1, i64 32
  %11 = load ptr, ptr %10, align 8
  %12 = ptrtoint ptr %9 to i64
  %13 = ptrtoint ptr %11 to i64
  %14 = sub i64 %12, %13
  %15 = icmp ugt i64 %7, %14
  br i1 %15, label %16, label %18

16:                                               ; preds = %_ZN4llvm9StringRefC2EPKc.exit.i
  %17 = tail call noundef nonnull align 8 dereferenceable(48) ptr @_ZN4llvm11raw_ostream5writeEPKcm(ptr noundef nonnull align 8 dereferenceable(48) %1, ptr noundef nonnull %6, i64 noundef %7) #21
  br label %_ZN4llvm11raw_ostreamlsEPKc.exit

18:                                               ; preds = %_ZN4llvm9StringRefC2EPKc.exit.i
  %.not.i2.i = icmp eq i64 %7, 0
  br i1 %.not.i2.i, label %_ZN4llvm11raw_ostreamlsEPKc.exit, label %19

19:                                               ; preds = %18
  tail call void @llvm.memcpy.p0.p0.i64(ptr align 1 %11, ptr nonnull align 1 %6, i64 %7, i1 false)
  %20 = load ptr, ptr %10, align 8
  %21 = getelementptr inbounds i8, ptr %20, i64 %7
  store ptr %21, ptr %10, align 8
  br label %_ZN4llvm11raw_ostreamlsEPKc.exit

_ZN4llvm11raw_ostreamlsEPKc.exit:                 ; preds = %2, %16, %18, %19
  %.0.i.i = phi ptr [ %17, %16 ], [ %1, %19 ], [ %1, %18 ], [ %1, %2 ]
  %22 = getelementptr inbounds nuw i8, ptr %.0.i.i, i64 24
  %23 = load ptr, ptr %22, align 8
  %24 = getelementptr inbounds nuw i8, ptr %.0.i.i, i64 32
  %25 = load ptr, ptr %24, align 8
  %26 = ptrtoint ptr %23 to i64
  %27 = ptrtoint ptr %25 to i64
  %28 = sub i64 %26, %27
  %29 = icmp ult i64 %28, 11
  br i1 %29, label %30, label %32

30:                                               ; preds = %_ZN4llvm11raw_ostreamlsEPKc.exit
  %31 = tail call noundef nonnull align 8 dereferenceable(48) ptr @_ZN4llvm11raw_ostream5writeEPKcm(ptr noundef nonnull align 8 dereferenceable(48) %.0.i.i, ptr noundef nonnull @.str, i64 noundef 11) #21
  br label %_ZN4llvm11raw_ostreamlsEPKc.exit12

32:                                               ; preds = %_ZN4llvm11raw_ostreamlsEPKc.exit
  tail call void @llvm.memcpy.p0.p0.i64(ptr noundef nonnull align 1 dereferenceable(11) %25, ptr noundef nonnull align 1 dereferenceable(11) @.str, i64 11, i1 false)
  %33 = load ptr, ptr %24, align 8
  %34 = getelementptr inbounds nuw i8, ptr %33, i64 11
  store ptr %34, ptr %24, align 8
  br label %_ZN4llvm11raw_ostreamlsEPKc.exit12

_ZN4llvm11raw_ostreamlsEPKc.exit12:               ; preds = %30, %32
  %35 = getelementptr inbounds nuw i8, ptr %0, i64 8
  %36 = tail call noundef i64 @_ZNK4llvm15SmallVectorBaseIjE4sizeEv(ptr noundef nonnull align 8 dereferenceable(16) %35) #21
  %37 = and i64 %36, 4294967295
  %.not20 = icmp eq i64 %37, 0
  br i1 %.not20, label %._crit_edge, label %.lr.ph

.lr.ph:                                           ; preds = %_ZN4llvm11raw_ostreamlsEPKc.exit12
  %38 = getelementptr inbounds nuw i8, ptr %1, i64 24
  %39 = getelementptr inbounds nuw i8, ptr %1, i64 32
  %40 = and i64 %36, 4294967295
  br label %41

41:                                               ; preds = %.lr.ph, %_ZN4llvm11raw_ostreamlsEc.exit19
  %indvars.iv = phi i64 [ 0, %.lr.ph ], [ %indvars.iv.next, %_ZN4llvm11raw_ostreamlsEc.exit19 ]
  %42 = load ptr, ptr %38, align 8
  %43 = load ptr, ptr %39, align 8
  %44 = ptrtoint ptr %42 to i64
  %45 = ptrtoint ptr %43 to i64
  %46 = sub i64 %44, %45
  %47 = icmp ult i64 %46, 6
  br i1 %47, label %48, label %50

48:                                               ; preds = %41
  %49 = tail call noundef nonnull align 8 dereferenceable(48) ptr @_ZN4llvm11raw_ostream5writeEPKcm(ptr noundef nonnull align 8 dereferenceable(48) %1, ptr noundef nonnull @.str.1, i64 noundef 6) #21
  br label %_ZN4llvm11raw_ostreamlsEPKc.exit16

50:                                               ; preds = %41
  tail call void @llvm.memcpy.p0.p0.i64(ptr noundef nonnull align 1 dereferenceable(6) %43, ptr noundef nonnull align 1 dereferenceable(6) @.str.1, i64 6, i1 false)
  %51 = load ptr, ptr %39, align 8
  %52 = getelementptr inbounds nuw i8, ptr %51, i64 6
  store ptr %52, ptr %39, align 8
  br label %_ZN4llvm11raw_ostreamlsEPKc.exit16

_ZN4llvm11raw_ostreamlsEPKc.exit16:               ; preds = %48, %50
  %.0.i.i15 = phi ptr [ %49, %48 ], [ %1, %50 ]
  %53 = tail call noundef nonnull align 8 dereferenceable(48) ptr @_ZN4llvm11raw_ostreamlsEm(ptr noundef nonnull align 8 dereferenceable(48) %.0.i.i15, i64 noundef %indvars.iv) #21
  %54 = getelementptr inbounds nuw i8, ptr %53, i64 32
  %55 = load ptr, ptr %54, align 8
  %56 = getelementptr inbounds nuw i8, ptr %53, i64 24
  %57 = load ptr, ptr %56, align 8
  %.not.i = icmp ult ptr %55, %57
  br i1 %.not.i, label %60, label %58

58:                                               ; preds = %_ZN4llvm11raw_ostreamlsEPKc.exit16
  %59 = tail call noundef nonnull align 8 dereferenceable(48) ptr @_ZN4llvm11raw_ostream5writeEh(ptr noundef nonnull align 8 dereferenceable(48) %53, i8 noundef zeroext 9) #21
  br label %_ZN4llvm11raw_ostreamlsEc.exit

60:                                               ; preds = %_ZN4llvm11raw_ostreamlsEPKc.exit16
  %61 = getelementptr inbounds nuw i8, ptr %55, i64 1
  store ptr %61, ptr %54, align 8
  store i8 9, ptr %55, align 1
  br label %_ZN4llvm11raw_ostreamlsEc.exit

_ZN4llvm11raw_ostreamlsEc.exit:                   ; preds = %58, %60
  %62 = load ptr, ptr %35, align 8
  %63 = getelementptr inbounds nuw %"struct.llvm::MachineTraceMetrics::TraceBlockInfo", ptr %62, i64 %indvars.iv
  tail call void @_ZNK4llvm19MachineTraceMetrics14TraceBlockInfo5printERNS_11raw_ostreamE(ptr noundef nonnull align 8 dereferenceable(88) %63, ptr noundef nonnull align 8 dereferenceable(48) %1)
  %64 = load ptr, ptr %39, align 8
  %65 = load ptr, ptr %38, align 8
  %.not.i17 = icmp ult ptr %64, %65
  br i1 %.not.i17, label %68, label %66

66:                                               ; preds = %_ZN4llvm11raw_ostreamlsEc.exit
  %67 = tail call noundef nonnull align 8 dereferenceable(48) ptr @_ZN4llvm11raw_ostream5writeEh(ptr noundef nonnull align 8 dereferenceable(48) %1, i8 noundef zeroext 10) #21
  br label %_ZN4llvm11raw_ostreamlsEc.exit19

68:                                               ; preds = %_ZN4llvm11raw_ostreamlsEc.exit
  %69 = getelementptr inbounds nuw i8, ptr %64, i64 1
  store ptr %69, ptr %39, align 8
  store i8 10, ptr %64, align 1
  br label %_ZN4llvm11raw_ostreamlsEc.exit19

_ZN4llvm11raw_ostreamlsEc.exit19:                 ; preds = %66, %68
  %indvars.iv.next = add nuw nsw i64 %indvars.iv, 1
  %.not = icmp eq i64 %indvars.iv.next, %40
  br i1 %.not, label %._crit_edge, label %41, !llvm.loop !127

._crit_edge:                                      ; preds = %_ZN4llvm11raw_ostreamlsEc.exit19, %_ZN4llvm11raw_ostreamlsEPKc.exit12
  ret void
}